; Function Attrs: mustprogress uwtable
define dso_local noundef zeroext i1 @_ZNK4base11StringValue11GetAsStringEPNSt7__cxx1112basic_stringItNS_20string16_char_traitsESaItEEE(ptr noundef nonnull align 8 dereferenceable(48) %this, ptr noundef %out_value) unnamed_addr #3 align 2 {
entry:
  %ref.tmp = alloca %"class.std::__cxx11::basic_string.4", align 8
  %agg.tmp = alloca %"class.base::BasicStringPiece", align 8
  %tobool.not = icmp eq ptr %out_value, null
  br i1 %tobool.not, label %if.end, label %if.then

if.then:                                          ; preds = %entry
  %value_ = getelementptr inbounds i8, ptr %this, i64 16
  call void @_ZN4base16BasicStringPieceINSt7__cxx1112basic_stringIcSt11char_traitsIcESaIcEEEEC1ERKS6_(ptr noundef nonnull align 8 dereferenceable(16) %agg.tmp, ptr noundef nonnull align 8 dereferenceable(32) %value_)
  %0 = load ptr, ptr %agg.tmp, align 8
  %1 = getelementptr inbounds i8, ptr %agg.tmp, i64 8
  %2 = load i64, ptr %1, align 8
  call void @_ZN4base11UTF8ToUTF16ENS_16BasicStringPieceINSt7__cxx1112basic_stringIcSt11char_traitsIcESaIcEEEEE(ptr nonnull sret(%"class.std::__cxx11::basic_string.4") align 8 %ref.tmp, ptr %0, i64 %2)
  %call = call noundef nonnull align 8 dereferenceable(32) ptr @_ZNSt7__cxx1112basic_stringItN4base20string16_char_traitsESaItEEaSEOS4_(ptr noundef nonnull align 8 dereferenceable(32) %out_value, ptr noundef nonnull align 8 dereferenceable(32) %ref.tmp) #26
  call void @_ZNSt7__cxx1112basic_stringItN4base20string16_char_traitsESaItEED1Ev(ptr noundef nonnull align 8 dereferenceable(32) %ref.tmp) #26
  br label %if.end

if.end:                                           ; preds = %if.then, %entry
  ret i1 true
}